target datalayout = "e-m:e-p270:32:32-p271:32:32-p272:64:64-i64:64-i128:128-f80:128-n8:16:32:64-S128"
target triple = "x86_64-unknown-linux-gnu"

%"class.absl::Mutex" = type { %"struct.std::atomic" }
%"struct.std::atomic" = type { %"struct.std::__atomic_base" }
%"struct.std::__atomic_base" = type { i64 }
%"struct.(anonymous namespace)::LockWhenTestStruct" = type <{ %"class.absl::Mutex", i8, [7 x i8], %"class.absl::Mutex", i8, [7 x i8] }>

; Function Attrs: mustprogress uwtable
define internal noundef zeroext i1 @_ZN12_GLOBAL__N_118LockWhenTestIsCondEPNS_18LockWhenTestStructE(ptr noundef %s) #4 {
entry:
  %s.addr = alloca ptr, align 8
  store ptr %s, ptr %s.addr, align 8
  %0 = load ptr, ptr %s.addr, align 8
  %mu2 = getelementptr inbounds %"struct.(anonymous namespace)::LockWhenTestStruct", ptr %0, i32 0, i32 3
  call void @_ZN4absl5Mutex4LockEv(ptr noundef nonnull align 8 dereferenceable(8) %mu2)
  %1 = load ptr, ptr %s.addr, align 8
  %waiting = getelementptr inbounds %"struct.(anonymous namespace)::LockWhenTestStruct", ptr %1, i32 0, i32 4
  store i8 1, ptr %waiting, align 8
  %2 = load ptr, ptr %s.addr, align 8
  %mu21 = getelementptr inbounds %"struct.(anonymous namespace)::LockWhenTestStruct", ptr %2, i32 0, i32 3
  call void @_ZN4absl5Mutex6UnlockEv(ptr noundef nonnull align 8 dereferenceable(8) %mu21)
  %3 = load ptr, ptr %s.addr, align 8
  %cond = getelementptr inbounds %"struct.(anonymous namespace)::LockWhenTestStruct", ptr %3, i32 0, i32 1
  %4 = load i8, ptr %cond, align 8
  %tobool = trunc i8 %4 to i1
  ret i1 %tobool
}