; Function Attrs: mustprogress uwtable
define internal noundef zeroext i1 @_ZN12_GLOBAL__N_118LockWhenTestIsCondEPNS_18LockWhenTestStructE(ptr noundef %s) #3 {
entry:
  %mu2 = getelementptr inbounds i8, ptr %s, i64 16
  tail call void @_ZN4absl5Mutex4LockEv(ptr noundef nonnull align 8 dereferenceable(8) %mu2)
  %waiting = getelementptr inbounds i8, ptr %s, i64 24
  store i8 1, ptr %waiting, align 8
  tail call void @_ZN4absl5Mutex6UnlockEv(ptr noundef nonnull align 8 dereferenceable(8) %mu2)
  %cond = getelementptr inbounds i8, ptr %s, i64 8
  %0 = load i8, ptr %cond, align 8
  %1 = and i8 %0, 1
  %tobool = icmp ne i8 %1, 0
  ret i1 %tobool
}